target datalayout = "e-m:e-p270:32:32-p271:32:32-p272:64:64-i64:64-i128:128-f80:128-n8:16:32:64-S128"
target triple = "x86_64-pc-linux-gnu"

%struct.print_stream = type { ptr, ptr }

; Function Attrs: mustprogress uwtable
define internal noundef i32 @_ZL11new_page_pdP12print_stream(ptr noundef %0) #0 {
  %2 = alloca i32, align 4
  %3 = alloca ptr, align 8
  %4 = alloca ptr, align 8
  store ptr %0, ptr %3, align 8
  %5 = load ptr, ptr %3, align 8
  %6 = icmp ne ptr %5, null
  br i1 %6, label %8, label %7

7:                                                ; preds = %1
  store i32 0, ptr %2, align 4
  br label %18

8:                                                ; preds = %1
  %9 = load ptr, ptr %3, align 8
  %10 = getelementptr inbounds %struct.print_stream, ptr %9, i32 0, i32 1
  %11 = load ptr, ptr %10, align 8
  store ptr %11, ptr %4, align 8
  %12 = load ptr, ptr %4, align 8
  %13 = icmp ne ptr %12, null
  br i1 %13, label %15, label %14

14:                                               ; preds = %8
  store i32 0, ptr %2, align 4
  br label %18

15:                                               ; preds = %8
  %16 = load ptr, ptr %4, align 8
  %17 = call noundef i32 @_ZN11PrintDialog11printHeaderEv(ptr noundef nonnull align 8 dereferenceable(525) %16)
  store i32 %17, ptr %2, align 4
  br label %18

18:                                               ; preds = %15, %14, %7
  %19 = load i32, ptr %2, align 4
  ret i32 %19
}