; Function Attrs: mustprogress uwtable
define internal noundef i32 @_ZL11new_page_pdP12print_stream(ptr noundef readonly %0) #0 {
  %.not = icmp eq ptr %0, null
  br i1 %.not, label %7, label %2

2:                                                ; preds = %1
  %3 = getelementptr inbounds i8, ptr %0, i64 8
  %4 = load ptr, ptr %3, align 8
  %.not6 = icmp eq ptr %4, null
  br i1 %.not6, label %7, label %5

5:                                                ; preds = %2
  %6 = tail call noundef i32 @_ZN11PrintDialog11printHeaderEv(ptr noundef nonnull align 8 dereferenceable(525) %4), !range !12
  br label %7

7:                                                ; preds = %2, %1, %5
  %.0 = phi i32 [ %6, %5 ], [ 0, %1 ], [ 0, %2 ]
  ret i32 %.0
}